target datalayout = "e-m:e-p270:32:32-p271:32:32-p272:64:64-i64:64-i128:128-f80:128-n8:16:32:64-S128"
target triple = "x86_64-pc-linux-gnu"

%struct.lua_State = type { %struct.GCRef, i8, i8, i8, i8, %struct.MRef, %struct.GCRef, ptr, ptr, %struct.MRef, %struct.MRef, %struct.GCRef, %struct.GCRef, ptr, i32 }
%struct.MRef = type { i64 }
%struct.GCRef = type { i64 }
%union.TValue = type { i64 }
%struct.GG_State = type { %struct.lua_State, %struct.global_State, %struct.jit_State, [64 x i16], [243 x ptr], [57 x i32] }
%struct.global_State = type { ptr, ptr, %struct.GCState, %struct.GCstr, i8, i8, i8, i8, %struct.StrInternState, i32, %struct.GCRef, %struct.SBuf, %union.TValue, %union.TValue, %struct.Node, %union.TValue, %struct.GCupval, i32, i32, ptr, ptr, ptr, i32, i32, %struct.GCRef, %struct.MRef, %struct.MRef, %struct.PRNGState, [39 x %struct.GCRef] }
%struct.GCState = type { i64, i64, i8, i8, i8, i8, i32, %struct.GCRef, %struct.MRef, %struct.GCRef, %struct.GCRef, %struct.GCRef, %struct.GCRef, i64, i64, i32, i32, %struct.MRef }
%struct.GCstr = type { %struct.GCRef, i8, i8, i8, i8, i32, i32, i32 }
%struct.StrInternState = type { ptr, i32, i32, i32, i8, i8, i8, i8, i64 }
%struct.SBuf = type { ptr, ptr, ptr, %struct.MRef }
%struct.Node = type { %union.TValue, %union.TValue, %struct.MRef }
%struct.GCupval = type { %struct.GCRef, i8, i8, i8, i8, %union.anon, %struct.MRef, i32 }
%union.anon = type { %struct.anon.1 }
%struct.anon.1 = type { %struct.GCRef, %struct.GCRef }
%struct.PRNGState = type { [4 x i64] }
%struct.jit_State = type { %struct.GCtrace, ptr, ptr, ptr, ptr, ptr, ptr, i32, i32, i32, i8, i8, %struct.IRType1, i8, %struct.FoldState, ptr, i32, i32, i32, i32, i32, i32, i32, [1 x i32], [5 x %union.TValue], [3 x %union.TValue], ptr, i32, i32, i32, i32, ptr, ptr, i32, i32, i8, ptr, i32, i32, i16, [101 x i16], [258 x i32], [15 x i32], [16 x ptr], [64 x %struct.HotPenalty], i32, [16 x %struct.BPropEntry], i32, %struct.ScEvEntry, ptr, i32, i32, i32, ptr, i32, i32, ptr, ptr, ptr, i64, i64, %union.TValue, ptr, i32, i32 }
%struct.GCtrace = type { %struct.GCRef, i8, i8, i16, i32, i32, %struct.GCRef, ptr, i32, i32, ptr, ptr, %struct.GCRef, %struct.MRef, i32, i32, ptr, i32, i16, i16, i16, i16, i16, i16, i16, i8, i8, i8, i8 }
%struct.IRType1 = type { i8 }
%struct.FoldState = type { %union.IRIns, [2 x %union.IRIns], [2 x %union.IRIns] }
%union.IRIns = type { %struct.GCRef }
%struct.HotPenalty = type { %struct.MRef, i16, i16 }
%struct.BPropEntry = type { i16, i16, i32 }
%struct.ScEvEntry = type { %struct.MRef, i16, i16, i16, i16, %struct.IRType1, i8 }

@.str.7 = private unnamed_addr constant [18 x i8] c"\04SSE3\06SSE4.1\04BMI2\00", align 1
@.str.8 = private unnamed_addr constant [52 x i8] c"\04fold\03cse\03dce\03fwd\03dse\06narrow\04loop\03abc\04sink\04fuse\03fma\00", align 1
@.str.9 = private unnamed_addr constant [24 x i8] c"store to dead GC object\00", align 1

; Function Attrs: alwaysinline nounwind uwtable
define internal void @checklivetv(ptr noundef %0, ptr noundef %1, ptr noundef %2) #5 {
  %4 = alloca ptr, align 8
  %5 = alloca ptr, align 8
  %6 = alloca ptr, align 8
  store ptr %0, ptr %4, align 8, !tbaa !4
  store ptr %1, ptr %5, align 8, !tbaa !56
  store ptr %2, ptr %6, align 8, !tbaa !41
  ret void
}

; Function Attrs: alwaysinline nounwind uwtable
define internal void @setgcVraw(ptr noundef %0, ptr noundef %1, i32 noundef %2) #5 {
  %4 = alloca ptr, align 8
  %5 = alloca ptr, align 8
  %6 = alloca i32, align 4
  store ptr %0, ptr %4, align 8, !tbaa !56
  store ptr %1, ptr %5, align 8, !tbaa !57
  store i32 %2, ptr %6, align 4, !tbaa !35
  %7 = load ptr, ptr %5, align 8, !tbaa !57
  %8 = ptrtoint ptr %7 to i64
  %9 = load i32, ptr %6, align 4, !tbaa !35
  %10 = zext i32 %9 to i64
  %11 = shl i64 %10, 47
  %12 = or i64 %8, %11
  %13 = load ptr, ptr %4, align 8, !tbaa !56
  %14 = getelementptr inbounds nuw %struct.GCRef, ptr %13, i32 0, i32 0
  store i64 %12, ptr %14, align 8, !tbaa !37
  ret void
}

; Function Attrs: alwaysinline nounwind uwtable
define internal void @setgcV(ptr noundef %0, ptr noundef %1, ptr noundef %2, i32 noundef %3) #5 {
  %5 = alloca ptr, align 8
  %6 = alloca ptr, align 8
  %7 = alloca ptr, align 8
  %8 = alloca i32, align 4
  store ptr %0, ptr %5, align 8, !tbaa !4
  store ptr %1, ptr %6, align 8, !tbaa !56
  store ptr %2, ptr %7, align 8, !tbaa !57
  store i32 %3, ptr %8, align 4, !tbaa !35
  %9 = load ptr, ptr %6, align 8, !tbaa !56
  %10 = load ptr, ptr %7, align 8, !tbaa !57
  %11 = load i32, ptr %8, align 4, !tbaa !35
  call void @setgcVraw(ptr noundef %9, ptr noundef %10, i32 noundef %11)
  %12 = load ptr, ptr %5, align 8, !tbaa !4
  %13 = load ptr, ptr %6, align 8, !tbaa !56
  call void @checklivetv(ptr noundef %12, ptr noundef %13, ptr noundef @.str.9)
  ret void
}

; Function Attrs: alwaysinline nounwind uwtable
define internal void @setstrV(ptr noundef %0, ptr noundef %1, ptr noundef %2) #5 {
  %4 = alloca ptr, align 8
  %5 = alloca ptr, align 8
  %6 = alloca ptr, align 8
  store ptr %0, ptr %4, align 8, !tbaa !4
  store ptr %1, ptr %5, align 8, !tbaa !56
  store ptr %2, ptr %6, align 8, !tbaa !39
  %7 = load ptr, ptr %4, align 8, !tbaa !4
  %8 = load ptr, ptr %5, align 8, !tbaa !56
  %9 = load ptr, ptr %6, align 8, !tbaa !39
  call void @setgcV(ptr noundef %7, ptr noundef %8, ptr noundef %9, i32 noundef -5)
  ret void
}

; Function Attrs: nounwind uwtable
define internal void @flagbits_to_strings(ptr noundef %0, i32 noundef %1, i32 noundef %2, ptr noundef %3) #0 {
  %5 = alloca ptr, align 8
  %6 = alloca i32, align 4
  %7 = alloca i32, align 4
  %8 = alloca ptr, align 8
  store ptr %0, ptr %5, align 8, !tbaa !4
  store i32 %1, ptr %6, align 4, !tbaa !35
  store i32 %2, ptr %7, align 4, !tbaa !35
  store ptr %3, ptr %8, align 8, !tbaa !41
  br label %9

9:                                                ; preds = %32, %4
  %10 = load ptr, ptr %8, align 8, !tbaa !41
  %11 = load i8, ptr %10, align 1, !tbaa !37
  %12 = icmp ne i8 %11, 0
  br i1 %12, label %13, label %42

13:                                               ; preds = %9
  %14 = load i32, ptr %6, align 4, !tbaa !35
  %15 = load i32, ptr %7, align 4, !tbaa !35
  %16 = and i32 %14, %15
  %17 = icmp ne i32 %16, 0
  br i1 %17, label %18, label %31

18:                                               ; preds = %13
  %19 = load ptr, ptr %5, align 8, !tbaa !4
  %20 = load ptr, ptr %5, align 8, !tbaa !4
  %21 = getelementptr inbounds nuw %struct.lua_State, ptr %20, i32 0, i32 8
  %22 = load ptr, ptr %21, align 8, !tbaa !16
  %23 = getelementptr inbounds nuw %union.TValue, ptr %22, i32 1
  store ptr %23, ptr %21, align 8, !tbaa !16
  %24 = load ptr, ptr %5, align 8, !tbaa !4
  %25 = load ptr, ptr %8, align 8, !tbaa !41
  %26 = getelementptr inbounds i8, ptr %25, i64 1
  %27 = load ptr, ptr %8, align 8, !tbaa !41
  %28 = load i8, ptr %27, align 1, !tbaa !37
  %29 = zext i8 %28 to i64
  %30 = call ptr @lj_str_new(ptr noundef %24, ptr noundef %26, i64 noundef %29)
  call void @setstrV(ptr noundef %19, ptr noundef %22, ptr noundef %30)
  br label %31

31:                                               ; preds = %18, %13
  br label %32

32:                                               ; preds = %31
  %33 = load i32, ptr %7, align 4, !tbaa !35
  %34 = shl i32 %33, 1
  store i32 %34, ptr %7, align 4, !tbaa !35
  %35 = load ptr, ptr %8, align 8, !tbaa !41
  %36 = load i8, ptr %35, align 1, !tbaa !37
  %37 = sext i8 %36 to i32
  %38 = add nsw i32 1, %37
  %39 = load ptr, ptr %8, align 8, !tbaa !41
  %40 = sext i32 %38 to i64
  %41 = getelementptr inbounds i8, ptr %39, i64 %40
  store ptr %41, ptr %8, align 8, !tbaa !41
  br label %9, !llvm.loop !55

42:                                               ; preds = %9
  ret void
}

; Function Attrs: nounwind uwtable
define internal i32 @lj_cf_jit_status(ptr noundef %0) #0 {
  %2 = alloca ptr, align 8
  %3 = alloca ptr, align 8
  store ptr %0, ptr %2, align 8, !tbaa !4
  call void @llvm.lifetime.start.p0(i64 8, ptr %3) #9
  %4 = load ptr, ptr %2, align 8, !tbaa !4
  %5 = getelementptr inbounds nuw %struct.lua_State, ptr %4, i32 0, i32 5
  %6 = getelementptr inbounds nuw %struct.MRef, ptr %5, i32 0, i32 0
  %7 = load i64, ptr %6, align 8, !tbaa !17
  %8 = inttoptr i64 %7 to ptr
  %9 = getelementptr inbounds i8, ptr %8, i64 -96
  %10 = getelementptr inbounds nuw %struct.GG_State, ptr %9, i32 0, i32 2
  store ptr %10, ptr %3, align 8, !tbaa !18
  %11 = load ptr, ptr %2, align 8, !tbaa !4
  %12 = getelementptr inbounds nuw %struct.lua_State, ptr %11, i32 0, i32 7
  %13 = load ptr, ptr %12, align 8, !tbaa !36
  %14 = load ptr, ptr %2, align 8, !tbaa !4
  %15 = getelementptr inbounds nuw %struct.lua_State, ptr %14, i32 0, i32 8
  store ptr %13, ptr %15, align 8, !tbaa !16
  %16 = load ptr, ptr %3, align 8, !tbaa !18
  %17 = getelementptr inbounds nuw %struct.jit_State, ptr %16, i32 0, i32 7
  %18 = load i32, ptr %17, align 8, !tbaa !20
  %19 = and i32 %18, 1
  %20 = icmp ne i32 %19, 0
  %21 = select i1 %20, i32 1, i32 0
  %22 = add nsw i32 %21, 1
  %23 = sext i32 %22 to i64
  %24 = shl i64 %23, 47
  %25 = xor i64 %24, -1
  %26 = load ptr, ptr %2, align 8, !tbaa !4
  %27 = getelementptr inbounds nuw %struct.lua_State, ptr %26, i32 0, i32 8
  %28 = load ptr, ptr %27, align 8, !tbaa !16
  %29 = getelementptr inbounds nuw %union.TValue, ptr %28, i32 1
  store ptr %29, ptr %27, align 8, !tbaa !16
  store i64 %25, ptr %28, align 8, !tbaa !37
  %30 = load ptr, ptr %2, align 8, !tbaa !4
  %31 = load ptr, ptr %3, align 8, !tbaa !18
  %32 = getelementptr inbounds nuw %struct.jit_State, ptr %31, i32 0, i32 7
  %33 = load i32, ptr %32, align 8, !tbaa !20
  call void @flagbits_to_strings(ptr noundef %30, i32 noundef %33, i32 noundef 16, ptr noundef @.str.7)
  %34 = load ptr, ptr %2, align 8, !tbaa !4
  %35 = load ptr, ptr %3, align 8, !tbaa !18
  %36 = getelementptr inbounds nuw %struct.jit_State, ptr %35, i32 0, i32 7
  %37 = load i32, ptr %36, align 8, !tbaa !20
  call void @flagbits_to_strings(ptr noundef %34, i32 noundef %37, i32 noundef 65536, ptr noundef @.str.8)
  %38 = load ptr, ptr %2, align 8, !tbaa !4
  %39 = getelementptr inbounds nuw %struct.lua_State, ptr %38, i32 0, i32 8
  %40 = load ptr, ptr %39, align 8, !tbaa !16
  %41 = load ptr, ptr %2, align 8, !tbaa !4
  %42 = getelementptr inbounds nuw %struct.lua_State, ptr %41, i32 0, i32 7
  %43 = load ptr, ptr %42, align 8, !tbaa !36
  %44 = ptrtoint ptr %40 to i64
  %45 = ptrtoint ptr %43 to i64
  %46 = sub i64 %44, %45
  %47 = sdiv exact i64 %46, 8
  %48 = trunc i64 %47 to i32
  call void @llvm.lifetime.end.p0(i64 8, ptr %3) #9
  ret i32 %48
}