; Function Attrs: nounwind uwtable
define internal i32 @lj_cf_jit_status(ptr noundef initializes((40, 48)) %0) #0 {
  %2 = getelementptr inbounds nuw i8, ptr %0, i64 16
  %3 = load i64, ptr %2, align 8, !tbaa !4
  %4 = inttoptr i64 %3 to ptr
  %5 = getelementptr inbounds nuw i8, ptr %0, i64 32
  %6 = load ptr, ptr %5, align 8, !tbaa !33
  %7 = getelementptr inbounds nuw i8, ptr %0, i64 40
  %8 = getelementptr inbounds nuw i8, ptr %4, i64 904
  %9 = load i32, ptr %8, align 8, !tbaa !15
  %10 = and i32 %9, 1
  %11 = add nuw nsw i32 %10, 1
  %12 = zext nneg i32 %11 to i64
  %13 = shl nuw nsw i64 %12, 47
  %14 = xor i64 %13, -1
  %15 = getelementptr inbounds nuw i8, ptr %6, i64 8
  store ptr %15, ptr %7, align 8, !tbaa !32
  store i64 %14, ptr %6, align 8, !tbaa !34
  %16 = load i32, ptr %8, align 8, !tbaa !15
  br label %17

17:                                               ; preds = %29, %1
  %18 = phi i8 [ 4, %1 ], [ %35, %29 ]
  %.014.i = phi ptr [ @.str.7, %1 ], [ %34, %29 ]
  %.01013.i = phi i32 [ 16, %1 ], [ %31, %29 ]
  %19 = and i32 %.01013.i, %16
  %.not11.i = icmp eq i32 %19, 0
  br i1 %.not11.i, label %29, label %20

20:                                               ; preds = %17
  %21 = load ptr, ptr %7, align 8, !tbaa !32
  %22 = getelementptr inbounds nuw i8, ptr %21, i64 8
  store ptr %22, ptr %7, align 8, !tbaa !32
  %23 = getelementptr inbounds nuw i8, ptr %.014.i, i64 1
  %24 = load i8, ptr %.014.i, align 1, !tbaa !34
  %25 = zext i8 %24 to i64
  %26 = tail call ptr @lj_str_new(ptr noundef %0, ptr noundef nonnull %23, i64 noundef %25) #8
  %27 = ptrtoint ptr %26 to i64
  %28 = or i64 %27, -703687441776640
  store i64 %28, ptr %21, align 8, !tbaa !34
  br label %29

29:                                               ; preds = %20, %17
  %30 = phi i8 [ %18, %17 ], [ %24, %20 ]
  %31 = shl i32 %.01013.i, 1
  %32 = sext i8 %30 to i64
  %33 = getelementptr i8, ptr %.014.i, i64 %32
  %34 = getelementptr i8, ptr %33, i64 1
  %35 = load i8, ptr %34, align 1, !tbaa !34
  %.not.i = icmp eq i8 %35, 0
  br i1 %.not.i, label %flagbits_to_strings.exit, label %17, !llvm.loop !35

flagbits_to_strings.exit:                         ; preds = %29
  %36 = load i32, ptr %8, align 8, !tbaa !15
  br label %37

37:                                               ; preds = %49, %flagbits_to_strings.exit
  %38 = phi i8 [ 4, %flagbits_to_strings.exit ], [ %55, %49 ]
  %.014.i11 = phi ptr [ @.str.8, %flagbits_to_strings.exit ], [ %54, %49 ]
  %.01013.i12 = phi i32 [ 65536, %flagbits_to_strings.exit ], [ %51, %49 ]
  %39 = and i32 %.01013.i12, %36
  %.not11.i13 = icmp eq i32 %39, 0
  br i1 %.not11.i13, label %49, label %40

40:                                               ; preds = %37
  %41 = load ptr, ptr %7, align 8, !tbaa !32
  %42 = getelementptr inbounds nuw i8, ptr %41, i64 8
  store ptr %42, ptr %7, align 8, !tbaa !32
  %43 = getelementptr inbounds nuw i8, ptr %.014.i11, i64 1
  %44 = load i8, ptr %.014.i11, align 1, !tbaa !34
  %45 = zext i8 %44 to i64
  %46 = tail call ptr @lj_str_new(ptr noundef %0, ptr noundef nonnull %43, i64 noundef %45) #8
  %47 = ptrtoint ptr %46 to i64
  %48 = or i64 %47, -703687441776640
  store i64 %48, ptr %41, align 8, !tbaa !34
  br label %49

49:                                               ; preds = %40, %37
  %50 = phi i8 [ %38, %37 ], [ %44, %40 ]
  %51 = shl i32 %.01013.i12, 1
  %52 = sext i8 %50 to i64
  %53 = getelementptr i8, ptr %.014.i11, i64 %52
  %54 = getelementptr i8, ptr %53, i64 1
  %55 = load i8, ptr %54, align 1, !tbaa !34
  %.not.i15 = icmp eq i8 %55, 0
  br i1 %.not.i15, label %flagbits_to_strings.exit16, label %37, !llvm.loop !35

flagbits_to_strings.exit16:                       ; preds = %49
  %56 = load ptr, ptr %7, align 8, !tbaa !32
  %57 = load ptr, ptr %5, align 8, !tbaa !33
  %58 = ptrtoint ptr %56 to i64
  %59 = ptrtoint ptr %57 to i64
  %60 = sub i64 %58, %59
  %61 = lshr exact i64 %60, 3
  %62 = trunc i64 %61 to i32
  ret i32 %62
}